target datalayout = "e-m:e-p270:32:32-p271:32:32-p272:64:64-i64:64-i128:128-f80:128-n8:16:32:64-S128"
target triple = "x86_64-pc-linux-gnu"

%struct.Aig_Obj_t_ = type { %union.anon, ptr, ptr, i64, i32, i32, %union.anon.0 }
%union.anon = type { ptr }
%union.anon.0 = type { ptr }
%struct.Aig_Man_t_ = type { ptr, ptr, ptr, ptr, ptr, ptr, ptr, %struct.Aig_Obj_t_, i32, i32, i32, i32, i32, i32, [7 x i32], i32, ptr, i32, ptr, i32, ptr, i32, i32, i32, ptr, i32, i32, i32, i32, i32, ptr, ptr, i32, ptr, ptr, i32, ptr, ptr, i32, i32, i32, ptr, ptr, ptr, ptr, ptr, ptr, ptr, ptr, ptr, ptr, ptr, ptr, ptr, ptr, i32, ptr, ptr, ptr, ptr, i32, i64, i64, i64, ptr, ptr }
%struct.Vec_Int_t_ = type { i32, i32, ptr }
%struct.DdManager = type { %struct.DdNode, ptr, ptr, ptr, ptr, ptr, ptr, ptr, i32, i32, double, double, double, i32, i32, i32, i32, i32, i32, ptr, ptr, %struct.DdSubtable, i32, i32, i32, i32, i32, i32, i32, double, i32, i32, i32, ptr, i64, double, i32, ptr, ptr, ptr, ptr, ptr, ptr, ptr, i32, ptr, ptr, ptr, ptr, ptr, ptr, i32, i32, i32, double, i32, i32, i32, i32, double, double, i32, i32, i32, i32, i32, i32, i32, i32, i32, ptr, ptr, i32, i32, i32, i32, i32, i32, ptr, ptr, ptr, ptr, ptr, ptr, ptr, ptr, i32, i64, i64, i64, i32, i64, i64, double, double, double, double, double, double, i32, ptr, ptr, i64 }
%struct.DdNode = type { i32, i32, ptr, %union.anon.1, i64 }
%union.anon.1 = type { %struct.DdChildren }
%struct.DdChildren = type { ptr, ptr }
%struct.DdSubtable = type { ptr, i32, i32, i32, i32, i32, i32, i32, i32, i32, i32, i32 }

; Function Attrs: inlinehint nounwind uwtable
define internal i32 @Aig_ManCoNum(ptr noundef %0) #2 {
  %2 = alloca ptr, align 8
  store ptr %0, ptr %2, align 8, !tbaa !3
  %3 = load ptr, ptr %2, align 8, !tbaa !3
  %4 = getelementptr inbounds nuw %struct.Aig_Man_t_, ptr %3, i32 0, i32 14
  %5 = getelementptr inbounds [7 x i32], ptr %4, i64 0, i64 3
  %6 = load i32, ptr %5, align 4, !tbaa !14
  ret i32 %6
}

; Function Attrs: inlinehint nounwind uwtable
define internal i32 @Aig_ManCiNum(ptr noundef %0) #2 {
  %2 = alloca ptr, align 8
  store ptr %0, ptr %2, align 8, !tbaa !3
  %3 = load ptr, ptr %2, align 8, !tbaa !3
  %4 = getelementptr inbounds nuw %struct.Aig_Man_t_, ptr %3, i32 0, i32 14
  %5 = getelementptr inbounds [7 x i32], ptr %4, i64 0, i64 2
  %6 = load i32, ptr %5, align 8, !tbaa !14
  ret i32 %6
}

; Function Attrs: inlinehint nounwind uwtable
define internal void @Vec_IntFree(ptr noundef %0) #2 {
  %2 = alloca ptr, align 8
  store ptr %0, ptr %2, align 8, !tbaa !10
  %3 = load ptr, ptr %2, align 8, !tbaa !10
  %4 = getelementptr inbounds nuw %struct.Vec_Int_t_, ptr %3, i32 0, i32 2
  %5 = load ptr, ptr %4, align 8, !tbaa !27
  %6 = icmp ne ptr %5, null
  br i1 %6, label %7, label %13

7:                                                ; preds = %1
  %8 = load ptr, ptr %2, align 8, !tbaa !10
  %9 = getelementptr inbounds nuw %struct.Vec_Int_t_, ptr %8, i32 0, i32 2
  %10 = load ptr, ptr %9, align 8, !tbaa !27
  call void @free(ptr noundef %10) #9
  %11 = load ptr, ptr %2, align 8, !tbaa !10
  %12 = getelementptr inbounds nuw %struct.Vec_Int_t_, ptr %11, i32 0, i32 2
  store ptr null, ptr %12, align 8, !tbaa !27
  br label %14

13:                                               ; preds = %1
  br label %14

14:                                               ; preds = %13, %7
  %15 = load ptr, ptr %2, align 8, !tbaa !10
  %16 = icmp ne ptr %15, null
  br i1 %16, label %17, label %19

17:                                               ; preds = %14
  %18 = load ptr, ptr %2, align 8, !tbaa !10
  call void @free(ptr noundef %18) #9
  store ptr null, ptr %2, align 8, !tbaa !10
  br label %20

19:                                               ; preds = %14
  br label %20

20:                                               ; preds = %19, %17
  ret void
}

; Function Attrs: nounwind uwtable
define void @Llb4_Nonlin4Sweep(ptr noundef %0, i32 noundef %1, i32 noundef %2, ptr noundef %3, ptr noundef %4, ptr noundef %5, i32 noundef %6) #0 {
  %8 = alloca ptr, align 8
  %9 = alloca i32, align 4
  %10 = alloca i32, align 4
  %11 = alloca ptr, align 8
  %12 = alloca ptr, align 8
  %13 = alloca ptr, align 8
  %14 = alloca i32, align 4
  %15 = alloca ptr, align 8
  %16 = alloca ptr, align 8
  %17 = alloca ptr, align 8
  %18 = alloca ptr, align 8
  %19 = alloca i32, align 4
  %20 = alloca i32, align 4
  store ptr %0, ptr %8, align 8, !tbaa !3
  store i32 %1, ptr %9, align 4, !tbaa !14
  store i32 %2, ptr %10, align 4, !tbaa !14
  store ptr %3, ptr %11, align 8, !tbaa !85
  store ptr %4, ptr %12, align 8, !tbaa !87
  store ptr %5, ptr %13, align 8, !tbaa !82
  store i32 %6, ptr %14, align 4, !tbaa !14
  call void @llvm.lifetime.start.p0(i64 8, ptr %15) #9
  call void @llvm.lifetime.start.p0(i64 8, ptr %16) #9
  call void @llvm.lifetime.start.p0(i64 8, ptr %17) #9
  call void @llvm.lifetime.start.p0(i64 8, ptr %18) #9
  call void @llvm.lifetime.start.p0(i64 4, ptr %19) #9
  call void @llvm.lifetime.start.p0(i64 4, ptr %20) #9
  %21 = load ptr, ptr %8, align 8, !tbaa !3
  call void @Aig_ManCleanMarkA(ptr noundef %21)
  %22 = load ptr, ptr %8, align 8, !tbaa !3
  %23 = call ptr @Llb_Nonlin4SweepOrder(ptr noundef %22, ptr noundef %19, i32 noundef 1)
  store ptr %23, ptr %18, align 8, !tbaa !10
  %24 = load ptr, ptr %8, align 8, !tbaa !3
  %25 = load ptr, ptr %18, align 8, !tbaa !10
  %26 = load i32, ptr %9, align 4, !tbaa !14
  %27 = load i32, ptr %14, align 4, !tbaa !14
  %28 = call i32 @Llb4_Nonlin4SweepCutpoints(ptr noundef %24, ptr noundef %25, i32 noundef %26, i32 noundef %27)
  store i32 %28, ptr %20, align 4, !tbaa !14
  %29 = load ptr, ptr %18, align 8, !tbaa !10
  call void @Vec_IntFree(ptr noundef %29)
  %30 = load ptr, ptr %8, align 8, !tbaa !3
  %31 = call ptr @Llb_Nonlin4SweepOrder(ptr noundef %30, ptr noundef %19, i32 noundef 0)
  store ptr %31, ptr %18, align 8, !tbaa !10
  %32 = load ptr, ptr %8, align 8, !tbaa !3
  call void @Aig_ManCleanMarkA(ptr noundef %32)
  %33 = load ptr, ptr %8, align 8, !tbaa !3
  %34 = load ptr, ptr %18, align 8, !tbaa !10
  %35 = load i32, ptr %20, align 4, !tbaa !14
  %36 = load ptr, ptr %8, align 8, !tbaa !3
  %37 = call i32 @Aig_ManCiNum(ptr noundef %36)
  %38 = add nsw i32 %35, %37
  %39 = load ptr, ptr %8, align 8, !tbaa !3
  %40 = call i32 @Aig_ManCoNum(ptr noundef %39)
  %41 = add nsw i32 %38, %40
  %42 = call ptr @Llb4_Nonlin4SweepBadStates(ptr noundef %33, ptr noundef %34, i32 noundef %41)
  store ptr %42, ptr %15, align 8, !tbaa !45
  %43 = load ptr, ptr %8, align 8, !tbaa !3
  %44 = load ptr, ptr %18, align 8, !tbaa !10
  %45 = load i32, ptr %20, align 4, !tbaa !14
  %46 = load ptr, ptr %8, align 8, !tbaa !3
  %47 = call i32 @Aig_ManCiNum(ptr noundef %46)
  %48 = add nsw i32 %45, %47
  %49 = load ptr, ptr %8, align 8, !tbaa !3
  %50 = call i32 @Aig_ManCoNum(ptr noundef %49)
  %51 = add nsw i32 %48, %50
  %52 = load i32, ptr %10, align 4, !tbaa !14
  %53 = load i32, ptr %14, align 4, !tbaa !14
  %54 = call ptr @Llb4_Nonlin4SweepGroups(ptr noundef %43, ptr noundef %44, i32 noundef %51, ptr noundef %17, i32 noundef %52, i32 noundef %53)
  store ptr %54, ptr %16, align 8, !tbaa !45
  %55 = load ptr, ptr %15, align 8, !tbaa !45
  %56 = load ptr, ptr %16, align 8, !tbaa !45
  %57 = load ptr, ptr %15, align 8, !tbaa !45
  %58 = getelementptr inbounds nuw %struct.DdManager, ptr %57, i32 0, i32 100
  %59 = load ptr, ptr %58, align 8, !tbaa !81
  %60 = call ptr @Cudd_bddTransfer(ptr noundef %55, ptr noundef %56, ptr noundef %59)
  %61 = load ptr, ptr %16, align 8, !tbaa !45
  %62 = getelementptr inbounds nuw %struct.DdManager, ptr %61, i32 0, i32 100
  store ptr %60, ptr %62, align 8, !tbaa !81
  %63 = load ptr, ptr %16, align 8, !tbaa !45
  %64 = getelementptr inbounds nuw %struct.DdManager, ptr %63, i32 0, i32 100
  %65 = load ptr, ptr %64, align 8, !tbaa !81
  call void @Cudd_Ref(ptr noundef %65)
  %66 = load ptr, ptr %15, align 8, !tbaa !45
  %67 = load ptr, ptr %15, align 8, !tbaa !45
  %68 = getelementptr inbounds nuw %struct.DdManager, ptr %67, i32 0, i32 100
  %69 = load ptr, ptr %68, align 8, !tbaa !81
  call void @Cudd_RecursiveDeref(ptr noundef %66, ptr noundef %69)
  %70 = load ptr, ptr %15, align 8, !tbaa !45
  %71 = getelementptr inbounds nuw %struct.DdManager, ptr %70, i32 0, i32 100
  store ptr null, ptr %71, align 8, !tbaa !81
  %72 = load ptr, ptr %15, align 8, !tbaa !45
  call void @Extra_StopManager(ptr noundef %72)
  %73 = load ptr, ptr %16, align 8, !tbaa !45
  %74 = load ptr, ptr %8, align 8, !tbaa !3
  %75 = load ptr, ptr %18, align 8, !tbaa !10
  %76 = load ptr, ptr %17, align 8, !tbaa !40
  %77 = load i32, ptr %14, align 4, !tbaa !14
  call void @Llb_Nonlin4SweepPrintSuppProfile(ptr noundef %73, ptr noundef %74, ptr noundef %75, ptr noundef %76, i32 noundef %77)
  %78 = load ptr, ptr %16, align 8, !tbaa !45
  %79 = load ptr, ptr %11, align 8, !tbaa !85
  store ptr %78, ptr %79, align 8, !tbaa !45
  %80 = load ptr, ptr %18, align 8, !tbaa !10
  %81 = load ptr, ptr %12, align 8, !tbaa !87
  store ptr %80, ptr %81, align 8, !tbaa !10
  %82 = load ptr, ptr %17, align 8, !tbaa !40
  %83 = load ptr, ptr %13, align 8, !tbaa !82
  store ptr %82, ptr %83, align 8, !tbaa !40
  call void @llvm.lifetime.end.p0(i64 4, ptr %20) #9
  call void @llvm.lifetime.end.p0(i64 4, ptr %19) #9
  call void @llvm.lifetime.end.p0(i64 8, ptr %18) #9
  call void @llvm.lifetime.end.p0(i64 8, ptr %17) #9
  call void @llvm.lifetime.end.p0(i64 8, ptr %16) #9
  call void @llvm.lifetime.end.p0(i64 8, ptr %15) #9
  ret void
}