; Function Attrs: nounwind uwtable
define void @Llb4_Nonlin4Sweep(ptr noundef %0, i32 noundef %1, i32 noundef %2, ptr noundef writeonly captures(none) initializes((0, 8)) %3, ptr noundef writeonly captures(none) initializes((0, 8)) %4, ptr noundef writeonly captures(none) initializes((0, 8)) %5, i32 noundef %6) local_unnamed_addr #2 {
  %8 = alloca ptr, align 8
  %9 = alloca i32, align 4
  call void @llvm.lifetime.start.p0(i64 8, ptr nonnull %8) #13
  call void @llvm.lifetime.start.p0(i64 4, ptr nonnull %9) #13
  tail call void @Aig_ManCleanMarkA(ptr noundef %0) #13
  %10 = call ptr @Llb_Nonlin4SweepOrder(ptr noundef %0, ptr noundef nonnull %9, i32 noundef 1)
  %11 = call i32 @Llb4_Nonlin4SweepCutpoints(ptr noundef %0, ptr noundef %10, i32 noundef %1, i32 noundef %6)
  %12 = getelementptr inbounds nuw i8, ptr %10, i64 8
  %13 = load ptr, ptr %12, align 8, !tbaa !26
  %.not.i = icmp eq ptr %13, null
  br i1 %.not.i, label %Vec_IntFree.exit, label %14

14:                                               ; preds = %7
  call void @free(ptr noundef nonnull %13) #13
  br label %Vec_IntFree.exit

Vec_IntFree.exit:                                 ; preds = %7, %14
  call void @free(ptr noundef nonnull %10) #13
  %15 = call ptr @Llb_Nonlin4SweepOrder(ptr noundef %0, ptr noundef nonnull %9, i32 noundef 0)
  call void @Aig_ManCleanMarkA(ptr noundef %0) #13
  %16 = getelementptr i8, ptr %0, i64 136
  %.val38 = load i32, ptr %16, align 8, !tbaa !25
  %17 = add nsw i32 %.val38, %11
  %18 = getelementptr i8, ptr %0, i64 140
  %.val40 = load i32, ptr %18, align 4, !tbaa !25
  %19 = add nsw i32 %17, %.val40
  %20 = call ptr @Llb4_Nonlin4SweepBadStates(ptr noundef %0, ptr noundef %15, i32 noundef %19)
  %.val = load i32, ptr %16, align 8, !tbaa !25
  %21 = add nsw i32 %.val, %11
  %.val39 = load i32, ptr %18, align 4, !tbaa !25
  %22 = add nsw i32 %21, %.val39
  %23 = call ptr @Llb4_Nonlin4SweepGroups(ptr noundef %0, ptr noundef %15, i32 noundef %22, ptr noundef nonnull %8, i32 noundef %2, i32 noundef %6)
  %24 = getelementptr inbounds nuw i8, ptr %20, i64 736
  %25 = load ptr, ptr %24, align 8, !tbaa !73
  %26 = call ptr @Cudd_bddTransfer(ptr noundef %20, ptr noundef %23, ptr noundef %25) #13
  %27 = getelementptr inbounds nuw i8, ptr %23, i64 736
  store ptr %26, ptr %27, align 8, !tbaa !73
  call void @Cudd_Ref(ptr noundef %26) #13
  %28 = load ptr, ptr %24, align 8, !tbaa !73
  call void @Cudd_RecursiveDeref(ptr noundef %20, ptr noundef %28) #13
  store ptr null, ptr %24, align 8, !tbaa !73
  call void @Extra_StopManager(ptr noundef %20) #13
  %29 = load ptr, ptr %8, align 8, !tbaa !74
  call void @Llb_Nonlin4SweepPrintSuppProfile(ptr noundef %23, ptr noundef %0, ptr noundef %15, ptr noundef %29, i32 noundef %6)
  store ptr %23, ptr %3, align 8, !tbaa !76
  store ptr %15, ptr %4, align 8, !tbaa !78
  store ptr %29, ptr %5, align 8, !tbaa !74
  call void @llvm.lifetime.end.p0(i64 4, ptr nonnull %9) #13
  call void @llvm.lifetime.end.p0(i64 8, ptr nonnull %8) #13
  ret void
}